; Function Attrs: nounwind uwtable
define internal ptr @pysqlite_connection_call(ptr noundef %0, ptr noundef %1, ptr noundef %2) #0 {
  %4 = alloca ptr, align 8
  call void @llvm.lifetime.start.p0(i64 8, ptr nonnull %4) #7
  %5 = getelementptr inbounds nuw i8, ptr %0, i64 52
  %6 = load i32, ptr %5, align 4, !tbaa !21
  %.not.i = icmp eq i32 %6, 0
  br i1 %.not.i, label %15, label %7

7:                                                ; preds = %3
  %8 = tail call i64 @PyThread_get_thread_ident() #7
  %9 = getelementptr inbounds nuw i8, ptr %0, i64 64
  %10 = load i64, ptr %9, align 8, !tbaa !22
  %.not5.i = icmp eq i64 %8, %10
  br i1 %.not5.i, label %15, label %pysqlite_check_thread.exit

pysqlite_check_thread.exit:                       ; preds = %7
  %11 = getelementptr inbounds nuw i8, ptr %0, i64 208
  %12 = load ptr, ptr %11, align 8, !tbaa !23
  %13 = tail call i64 @PyThread_get_thread_ident() #7
  %14 = tail call ptr (ptr, ptr, ...) @PyErr_Format(ptr noundef %12, ptr noundef nonnull @.str.2, i64 noundef %10, i64 noundef %13) #7
  br label %38

15:                                               ; preds = %7, %3
  %16 = getelementptr inbounds nuw i8, ptr %0, i64 56
  %17 = load i32, ptr %16, align 8, !tbaa !3
  %.not.i15 = icmp eq i32 %17, 0
  br i1 %.not.i15, label %18, label %22

18:                                               ; preds = %15
  %19 = getelementptr i8, ptr %0, i64 8
  %.val.i = load ptr, ptr %19, align 8, !tbaa !16
  %20 = tail call ptr @PyType_GetModuleByDef(ptr noundef %.val.i, ptr noundef nonnull @_sqlite3module) #7
  %21 = tail call ptr @PyModule_GetState(ptr noundef %20) #7
  br label %pysqlite_check_connection.exit.thread

22:                                               ; preds = %15
  %23 = getelementptr inbounds nuw i8, ptr %0, i64 16
  %24 = load ptr, ptr %23, align 8, !tbaa !17
  %.not5.i16 = icmp eq ptr %24, null
  br i1 %.not5.i16, label %25, label %pysqlite_check_connection.exit

25:                                               ; preds = %22
  %26 = getelementptr inbounds nuw i8, ptr %0, i64 24
  %27 = load ptr, ptr %26, align 8, !tbaa !18
  br label %pysqlite_check_connection.exit.thread

pysqlite_check_connection.exit.thread:            ; preds = %18, %25
  %.sink.i = phi ptr [ %27, %25 ], [ %21, %18 ]
  %.str.1.sink.i = phi ptr [ @.str.1, %25 ], [ @.str, %18 ]
  %28 = getelementptr inbounds nuw i8, ptr %.sink.i, i64 64
  %29 = load ptr, ptr %28, align 8, !tbaa !19
  tail call void @PyErr_SetString(ptr noundef %29, ptr noundef nonnull %.str.1.sink.i) #7
  br label %38

pysqlite_check_connection.exit:                   ; preds = %22
  %30 = icmp eq ptr %2, null
  br i1 %30, label %33, label %31

31:                                               ; preds = %pysqlite_check_connection.exit
  %32 = tail call i32 @_PyArg_NoKeywords(ptr noundef nonnull @.str.3, ptr noundef nonnull %2) #7
  %.not13 = icmp eq i32 %32, 0
  br i1 %.not13, label %38, label %33

33:                                               ; preds = %31, %pysqlite_check_connection.exit
  %34 = call i32 (ptr, ptr, ...) @PyArg_ParseTuple(ptr noundef %1, ptr noundef nonnull @.str.144, ptr noundef nonnull %4) #7
  %.not14 = icmp eq i32 %34, 0
  br i1 %.not14, label %38, label %35

35:                                               ; preds = %33
  %36 = load ptr, ptr %4, align 8, !tbaa !25
  %37 = call ptr @pysqlite_statement_create(ptr noundef nonnull %0, ptr noundef %36) #7
  br label %38

38:                                               ; preds = %pysqlite_check_connection.exit.thread, %pysqlite_check_thread.exit, %35, %33, %31
  %.0 = phi ptr [ null, %pysqlite_check_thread.exit ], [ null, %31 ], [ null, %33 ], [ %37, %35 ], [ null, %pysqlite_check_connection.exit.thread ]
  call void @llvm.lifetime.end.p0(i64 8, ptr nonnull %4) #7
  ret ptr %.0
}